; Function Attrs: mustprogress nounwind uwtable
define internal void @_ZN12_GLOBAL__N_115StoreSiteFinderD0Ev(ptr noundef nonnull align 8 dereferenceable(72) initializes((0, 8)) %0) unnamed_addr #0 align 2 {
  store ptr getelementptr inbounds nuw inrange(-16, 48) (i8, ptr @_ZTVN5clang4ento11bugreporter26TrackingBugReporterVisitorE, i64 16), ptr %0, align 8
  %2 = getelementptr inbounds nuw i8, ptr %0, i64 16
  %3 = load ptr, ptr %2, align 8
  %.not.i.i.i.i = icmp eq ptr %3, null
  br i1 %.not.i.i.i.i, label %_ZN12_GLOBAL__N_115StoreSiteFinderD2Ev.exit, label %4

4:                                                ; preds = %1
  %5 = getelementptr inbounds nuw i8, ptr %3, i64 8
  %6 = load i32, ptr %5, align 4
  %7 = add i32 %6, -1
  store i32 %7, ptr %5, align 4
  %8 = icmp eq i32 %7, 0
  br i1 %8, label %9, label %_ZN12_GLOBAL__N_115StoreSiteFinderD2Ev.exit

9:                                                ; preds = %4
  %10 = load ptr, ptr %3, align 8
  %11 = getelementptr inbounds nuw i8, ptr %10, i64 8
  %12 = load ptr, ptr %11, align 8
  tail call void %12(ptr noundef nonnull align 8 dereferenceable(72) %3) #22
  br label %_ZN12_GLOBAL__N_115StoreSiteFinderD2Ev.exit

_ZN12_GLOBAL__N_115StoreSiteFinderD2Ev.exit:      ; preds = %1, %4, %9
  tail call void @_ZN5clang4ento18BugReporterVisitorD2Ev(ptr noundef nonnull align 8 dereferenceable(72) %0) #22
  tail call void @_ZdlPvm(ptr noundef nonnull %0, i64 noundef 72) #25
  ret void
}